	.file	"main.c"
	.text
	.section .rdata,"dr"
LC0:
	.ascii "Hello from MyFunc!\15\0"
	.text
	.globl	_MyFunc
	.def	_MyFunc;	.scl	2;	.type	32;	.endef
_MyFunc:
LFB20:
	.cfi_startproc
	pushl	%ebp
	.cfi_def_cfa_offset 8
	.cfi_offset 5, -8
	movl	%esp, %ebp
	.cfi_def_cfa_register 5
	subl	$24, %esp
	movl	$LC0, (%esp)
	call	_puts
	nop
	leave
	.cfi_restore 5
	.cfi_def_cfa 4, 4
	ret
	.cfi_endproc
LFE20:
	.def	___main;	.scl	2;	.type	32;	.endef
	.section .rdata,"dr"
LC1:
	.ascii "%d + %d = %d\15\12\0"
	.text
	.globl	_main
	.def	_main;	.scl	2;	.type	32;	.endef
_main:
LFB21:
	.cfi_startproc
	pushl	%ebp
	.cfi_def_cfa_offset 8
	.cfi_offset 5, -8
	movl	%esp, %ebp
	.cfi_def_cfa_register 5
	andl	$-16, %esp
	subl	$32, %esp
	call	___main
	movl	$15, 28(%esp)
	movl	$17, 24(%esp)
	movl	24(%esp), %eax
	movl	%eax, 4(%esp)
	movl	28(%esp), %eax
	movl	%eax, (%esp)
	call	_Sum
	movl	%eax, 12(%esp)
	movl	24(%esp), %eax
	movl	%eax, 8(%esp)
	movl	28(%esp), %eax
	movl	%eax, 4(%esp)
	movl	$LC1, (%esp)
	call	_printf
	movl	$0, %eax
	leave
	.cfi_restore 5
	.cfi_def_cfa 4, 4
	ret
	.cfi_endproc
LFE21:
	.globl	_PrintSum
	.def	_PrintSum;	.scl	2;	.type	32;	.endef
_PrintSum:
LFB22:
	.cfi_startproc
	pushl	%ebp
	.cfi_def_cfa_offset 8
	.cfi_offset 5, -8
	movl	%esp, %ebp
	.cfi_def_cfa_register 5
	subl	$24, %esp
	movl	8(%ebp), %edx
	movl	12(%ebp), %eax
	addl	%edx, %eax
	movl	%eax, 12(%esp)
	movl	12(%ebp), %eax
	movl	%eax, 8(%esp)
	movl	8(%ebp), %eax
	movl	%eax, 4(%esp)
	movl	$LC1, (%esp)
	call	_printf
	nop
	leave
	.cfi_restore 5
	.cfi_def_cfa 4, 4
	ret
	.cfi_endproc
LFE22:
	.globl	_Sum
	.def	_Sum;	.scl	2;	.type	32;	.endef
_Sum:
LFB23:
	.cfi_startproc
	pushl	%ebp
	.cfi_def_cfa_offset 8
	.cfi_offset 5, -8
	movl	%esp, %ebp
	.cfi_def_cfa_register 5
	movl	8(%ebp), %edx
	movl	12(%ebp), %eax
	addl	%edx, %eax
	popl	%ebp
	.cfi_restore 5
	.cfi_def_cfa 4, 4
	ret
	.cfi_endproc
LFE23:
	.ident	"GCC: (MinGW.org GCC-8.2.0-5) 8.2.0"
	.def	_puts;	.scl	2;	.type	32;	.endef
	.def	_printf;	.scl	2;	.type	32;	.endef
