	.file	"utils.c"
	.intel_syntax noprefix
	.text
Ltext0:
	.globl	_int_to_binary
	.def	_int_to_binary;	.scl	2;	.type	32;	.endef
_int_to_binary:
LFB3:
	.file 1 "utils.c"
	.loc 1 4 1
	.cfi_startproc
	push	ebp
	.cfi_def_cfa_offset 8
	.cfi_offset 5, -8
	mov	ebp, esp
	.cfi_def_cfa_register 5
	sub	esp, 40
	.loc 1 5 8
	mov	DWORD PTR [ebp-20], 0
	mov	DWORD PTR [ebp-16], 0
	mov	BYTE PTR [ebp-12], 0
	.loc 1 7 17
	mov	DWORD PTR [ebp-24], 0
	.loc 1 8 9
	mov	BYTE PTR [ebp-10], 0
	.loc 1 8 3
	jmp	L2
L5:
	.loc 1 10 16
	movzx	eax, BYTE PTR [ebp-10]
	sal	eax, 3
	.loc 1 10 12
	mov	edx, DWORD PTR [ebp+8]
	mov	ecx, eax
	sar	edx, cl
	mov	eax, edx
	.loc 1 10 7
	test	eax, eax
	jne	L3
	.loc 1 10 24 discriminator 1
	cmp	BYTE PTR [ebp-10], 0
	jne	L12
L3:
	.loc 1 11 36 discriminator 2
	movzx	eax, BYTE PTR [ebp-10]
	sal	eax, 3
	.loc 1 11 32 discriminator 2
	mov	edx, DWORD PTR [ebp+8]
	mov	ecx, eax
	sar	edx, cl
	.loc 1 11 7 discriminator 2
	movzx	eax, BYTE PTR [ebp-10]
	.loc 1 11 11 discriminator 2
	mov	BYTE PTR [ebp-24+eax], dl
	.loc 1 8 19 discriminator 2
	movzx	eax, BYTE PTR [ebp-10]
	add	eax, 1
	mov	BYTE PTR [ebp-10], al
L2:
	.loc 1 8 3 discriminator 1
	cmp	BYTE PTR [ebp-10], 3
	jbe	L5
	jmp	L4
L12:
	.loc 1 10 5
	nop
L4:
	.loc 1 13 3
	mov	eax, DWORD PTR [ebp+12]
	mov	WORD PTR [eax], 25136
	mov	BYTE PTR [eax+2], 0
	.loc 1 14 9
	mov	BYTE PTR [ebp-11], 0
	.loc 1 14 3
	jmp	L6
L11:
	.loc 1 16 11
	mov	BYTE PTR [ebp-9], 0
	.loc 1 16 5
	jmp	L7
L10:
	.loc 1 18 20
	movzx	edx, BYTE PTR [ebp-10]
	movzx	eax, BYTE PTR [ebp-11]
	sub	edx, eax
	mov	eax, edx
	.loc 1 18 22
	sub	eax, 1
	.loc 1 18 18
	movzx	eax, BYTE PTR [ebp-24+eax]
	movzx	edx, al
	.loc 1 18 26
	movzx	eax, BYTE PTR [ebp-9]
	mov	ecx, eax
	sar	edx, cl
	mov	eax, edx
	.loc 1 18 32
	and	eax, 1
	test	eax, eax
	je	L8
	cmp	eax, 1
	jne	L9
	.loc 1 20 27
	movzx	eax, BYTE PTR [ebp-9]
	mov	edx, 7
	sub	edx, eax
	mov	eax, edx
	.loc 1 20 31
	mov	BYTE PTR [ebp-20+eax], 49
	.loc 1 20 9
	jmp	L9
L8:
	.loc 1 21 27
	movzx	eax, BYTE PTR [ebp-9]
	mov	edx, 7
	sub	edx, eax
	mov	eax, edx
	.loc 1 21 31
	mov	BYTE PTR [ebp-20+eax], 48
	.loc 1 21 9
	nop
L9:
	.loc 1 16 21 discriminator 2
	movzx	eax, BYTE PTR [ebp-9]
	add	eax, 1
	mov	BYTE PTR [ebp-9], al
L7:
	.loc 1 16 5 discriminator 1
	cmp	BYTE PTR [ebp-9], 7
	jbe	L10
	.loc 1 24 5 discriminator 2
	lea	eax, [ebp-20]
	mov	DWORD PTR [esp+4], eax
	mov	eax, DWORD PTR [ebp+12]
	mov	DWORD PTR [esp], eax
	call	_strcat
	.loc 1 14 19 discriminator 2
	movzx	eax, BYTE PTR [ebp-11]
	add	eax, 1
	mov	BYTE PTR [ebp-11], al
L6:
	.loc 1 14 3 discriminator 1
	movzx	eax, BYTE PTR [ebp-11]
	cmp	al, BYTE PTR [ebp-10]
	jb	L11
	.loc 1 26 1
	nop
	leave
	.cfi_restore 5
	.cfi_def_cfa 4, 4
	ret
	.cfi_endproc
LFE3:
Letext0: